target datalayout = "e-m:e-p270:32:32-p271:32:32-p272:64:64-i64:64-i128:128-f80:128-n8:16:32:64-S128"
target triple = "x86_64-pc-linux-gnu"

%struct.tmpi_datatype_ = type { i64, ptr, i32, ptr, i32 }

; Function Attrs: mustprogress uwtable
define noundef i32 @_Z18tMPI_Reduce_run_opPvPKvS1_P14tmpi_datatype_i7tMPI_OpP10tmpi_comm_(ptr noundef %0, ptr noundef %1, ptr noundef %2, ptr noundef %3, i32 noundef %4, i32 noundef %5, ptr noundef %6) #0 {
  %8 = alloca i32, align 4
  %9 = alloca ptr, align 8
  %10 = alloca ptr, align 8
  %11 = alloca ptr, align 8
  %12 = alloca ptr, align 8
  %13 = alloca i32, align 4
  %14 = alloca i32, align 4
  %15 = alloca ptr, align 8
  %16 = alloca ptr, align 8
  %17 = alloca i32, align 4
  store ptr %0, ptr %9, align 8, !tbaa !3
  store ptr %1, ptr %10, align 8, !tbaa !3
  store ptr %2, ptr %11, align 8, !tbaa !3
  store ptr %3, ptr %12, align 8, !tbaa !7
  store i32 %4, ptr %13, align 4, !tbaa !9
  store i32 %5, ptr %14, align 4, !tbaa !11
  store ptr %6, ptr %15, align 8, !tbaa !13
  call void @llvm.lifetime.start.p0(i64 8, ptr %16) #6
  %18 = load ptr, ptr %12, align 8, !tbaa !7
  %19 = getelementptr inbounds nuw %struct.tmpi_datatype_, ptr %18, i32 0, i32 1
  %20 = load ptr, ptr %19, align 8, !tbaa !15
  %21 = load i32, ptr %14, align 4, !tbaa !11
  %22 = zext i32 %21 to i64
  %23 = getelementptr inbounds nuw ptr, ptr %20, i64 %22
  %24 = load ptr, ptr %23, align 8, !tbaa !3
  store ptr %24, ptr %16, align 8, !tbaa !3
  %25 = load ptr, ptr %10, align 8, !tbaa !3
  %26 = load ptr, ptr %11, align 8, !tbaa !3
  %27 = icmp eq ptr %25, %26
  br i1 %27, label %28, label %31

28:                                               ; preds = %7
  %29 = load ptr, ptr %15, align 8, !tbaa !13
  %30 = call noundef i32 @_Z10tMPI_ErrorP10tmpi_comm_i(ptr noundef %29, i32 noundef 14)
  store i32 %30, ptr %8, align 4
  store i32 1, ptr %17, align 4
  br label %37

31:                                               ; preds = %7
  %32 = load ptr, ptr %16, align 8, !tbaa !3
  %33 = load ptr, ptr %9, align 8, !tbaa !3
  %34 = load ptr, ptr %10, align 8, !tbaa !3
  %35 = load ptr, ptr %11, align 8, !tbaa !3
  %36 = load i32, ptr %13, align 4, !tbaa !9
  call void %32(ptr noundef %33, ptr noundef %34, ptr noundef %35, i32 noundef %36)
  store i32 0, ptr %8, align 4
  store i32 1, ptr %17, align 4
  br label %37

37:                                               ; preds = %31, %28
  call void @llvm.lifetime.end.p0(i64 8, ptr %16) #6
  %38 = load i32, ptr %8, align 4
  ret i32 %38
}