; Function Attrs: mustprogress uwtable
define noundef i32 @_Z18tMPI_Reduce_run_opPvPKvS1_P14tmpi_datatype_i7tMPI_OpP10tmpi_comm_(ptr noundef %0, ptr noundef %1, ptr noundef %2, ptr noundef readonly captures(none) %3, i32 noundef %4, i32 noundef %5, ptr noundef %6) local_unnamed_addr #0 {
  %8 = icmp eq ptr %1, %2
  br i1 %8, label %9, label %11

9:                                                ; preds = %7
  %10 = tail call noundef i32 @_Z10tMPI_ErrorP10tmpi_comm_i(ptr noundef %6, i32 noundef 14)
  br label %17

11:                                               ; preds = %7
  %12 = getelementptr inbounds nuw i8, ptr %3, i64 8
  %13 = load ptr, ptr %12, align 8, !tbaa !3
  %14 = zext i32 %5 to i64
  %15 = getelementptr inbounds nuw ptr, ptr %13, i64 %14
  %16 = load ptr, ptr %15, align 8, !tbaa !12
  tail call void %16(ptr noundef %0, ptr noundef %1, ptr noundef %2, i32 noundef %4)
  br label %17

17:                                               ; preds = %11, %9
  %.0 = phi i32 [ %10, %9 ], [ 0, %11 ]
  ret i32 %.0
}